target datalayout = "e-m:e-p270:32:32-p271:32:32-p272:64:64-i64:64-i128:128-f80:128-n8:16:32:64-S128"
target triple = "x86_64-pc-linux-gnu"

%struct.hwloc_topology = type { i32, i32, i32, ptr, ptr, i64, [20 x i32], [20 x i32], i64, i64, i32, ptr, i64, ptr, i64, [6 x %struct.hwloc_special_level_s], ptr, ptr, %struct.hwloc_binding_hooks, %struct.hwloc_topology_support, %struct.hwloc_infos_s, ptr, ptr, i32, ptr, ptr, i32, i32, ptr, i32, i32, ptr, i32, i32, i32, [5 x float], i32, ptr, ptr, i32, i32, ptr, i32, %struct.hwloc_numanode_attr_s, i32, i32, ptr, i64, i32, ptr, ptr, ptr }
%struct.hwloc_special_level_s = type { i32, ptr, ptr, ptr }
%struct.hwloc_binding_hooks = type { ptr, ptr, ptr, ptr, ptr, ptr, ptr, ptr, ptr, ptr, ptr, ptr, ptr, ptr, ptr, ptr, ptr, ptr, ptr, ptr, ptr, ptr, ptr, ptr }
%struct.hwloc_topology_support = type { ptr, ptr, ptr, ptr }
%struct.hwloc_infos_s = type { ptr, i32, i32 }
%struct.hwloc_numanode_attr_s = type { i64, i32, ptr }
%struct.stat = type { i64, i64, i64, i32, i32, i32, i32, i64, i64, i64, i64, %struct.timespec, %struct.timespec, %struct.timespec, [3 x i64] }
%struct.timespec = type { i64, i64 }

@.str = private unnamed_addr constant [19 x i8] c"HWLOC_PCI_LOCALITY\00", align 1
@stderr = external global ptr, align 8
@.str.1 = private unnamed_addr constant [72 x i8] c"hwloc/pci: Ignoring HWLOC_PCI_LOCALITY file `%s' too large (%lu bytes)\0A\00", align 1

; Function Attrs: nounwind uwtable
define hidden void @hwloc_pci_discovery_prepare(ptr noundef %0) #0 {
  %2 = alloca ptr, align 8
  %3 = alloca ptr, align 8
  %4 = alloca i32, align 4
  %5 = alloca %struct.stat, align 8
  %6 = alloca ptr, align 8
  %7 = alloca i32, align 4
  store ptr %0, ptr %2, align 8, !tbaa !3
  call void @llvm.lifetime.start.p0(i64 8, ptr %3) #12
  %8 = call ptr @getenv(ptr noundef @.str) #12
  store ptr %8, ptr %3, align 8, !tbaa !38
  %9 = load ptr, ptr %3, align 8, !tbaa !38
  %10 = icmp ne ptr %9, null
  br i1 %10, label %11, label %70

11:                                               ; preds = %1
  call void @llvm.lifetime.start.p0(i64 4, ptr %4) #12
  %12 = load ptr, ptr %2, align 8, !tbaa !3
  %13 = getelementptr inbounds nuw %struct.hwloc_topology, ptr %12, i32 0, i32 44
  store i32 1, ptr %13, align 8, !tbaa !8
  %14 = load ptr, ptr %3, align 8, !tbaa !38
  %15 = call i32 (ptr, i32, ...) @open(ptr noundef %14, i32 noundef 0)
  store i32 %15, ptr %4, align 4, !tbaa !40
  %16 = load i32, ptr %4, align 4, !tbaa !40
  %17 = icmp sge i32 %16, 0
  br i1 %17, label %18, label %66

18:                                               ; preds = %11
  call void @llvm.lifetime.start.p0(i64 144, ptr %5) #12
  call void @llvm.lifetime.start.p0(i64 8, ptr %6) #12
  call void @llvm.lifetime.start.p0(i64 4, ptr %7) #12
  %19 = load i32, ptr %4, align 4, !tbaa !40
  %20 = call i32 @fstat(i32 noundef %19, ptr noundef %5) #12
  store i32 %20, ptr %7, align 4, !tbaa !40
  %21 = load i32, ptr %7, align 4, !tbaa !40
  %22 = icmp ne i32 %21, 0
  br i1 %22, label %63, label %23

23:                                               ; preds = %18
  %24 = getelementptr inbounds nuw %struct.stat, ptr %5, i32 0, i32 8
  %25 = load i64, ptr %24, align 8, !tbaa !41
  %26 = icmp sle i64 %25, 65536
  br i1 %26, label %27, label %52

27:                                               ; preds = %23
  %28 = getelementptr inbounds nuw %struct.stat, ptr %5, i32 0, i32 8
  %29 = load i64, ptr %28, align 8, !tbaa !41
  %30 = add nsw i64 %29, 1
  %31 = call noalias ptr @malloc(i64 noundef %30) #13
  store ptr %31, ptr %6, align 8, !tbaa !38
  %32 = load ptr, ptr %6, align 8, !tbaa !38
  %33 = icmp ne ptr %32, null
  br i1 %33, label %34, label %50

34:                                               ; preds = %27
  %35 = load i32, ptr %4, align 4, !tbaa !40
  %36 = load ptr, ptr %6, align 8, !tbaa !38
  %37 = getelementptr inbounds nuw %struct.stat, ptr %5, i32 0, i32 8
  %38 = load i64, ptr %37, align 8, !tbaa !41
  %39 = call i64 @read(i32 noundef %35, ptr noundef %36, i64 noundef %38)
  %40 = getelementptr inbounds nuw %struct.stat, ptr %5, i32 0, i32 8
  %41 = load i64, ptr %40, align 8, !tbaa !41
  %42 = icmp eq i64 %39, %41
  br i1 %42, label %43, label %50

43:                                               ; preds = %34
  %44 = load ptr, ptr %6, align 8, !tbaa !38
  %45 = getelementptr inbounds nuw %struct.stat, ptr %5, i32 0, i32 8
  %46 = load i64, ptr %45, align 8, !tbaa !41
  %47 = getelementptr inbounds i8, ptr %44, i64 %46
  store i8 0, ptr %47, align 1, !tbaa !44
  %48 = load ptr, ptr %2, align 8, !tbaa !3
  %49 = load ptr, ptr %6, align 8, !tbaa !38
  call void @hwloc_pci_forced_locality_parse(ptr noundef %48, ptr noundef %49)
  br label %50

50:                                               ; preds = %43, %34, %27
  %51 = load ptr, ptr %6, align 8, !tbaa !38
  call void @free(ptr noundef %51) #12
  br label %62

52:                                               ; preds = %23
  %53 = call i32 @hwloc_hide_errors()
  %54 = icmp slt i32 %53, 2
  br i1 %54, label %55, label %61

55:                                               ; preds = %52
  %56 = load ptr, ptr @stderr, align 8, !tbaa !45
  %57 = load ptr, ptr %3, align 8, !tbaa !38
  %58 = getelementptr inbounds nuw %struct.stat, ptr %5, i32 0, i32 8
  %59 = load i64, ptr %58, align 8, !tbaa !41
  %60 = call i32 (ptr, ptr, ...) @fprintf(ptr noundef %56, ptr noundef @.str.1, ptr noundef %57, i64 noundef %59) #12
  br label %61

61:                                               ; preds = %55, %52
  br label %62

62:                                               ; preds = %61, %50
  br label %63

63:                                               ; preds = %62, %18
  %64 = load i32, ptr %4, align 4, !tbaa !40
  %65 = call i32 @close(i32 noundef %64)
  call void @llvm.lifetime.end.p0(i64 4, ptr %7) #12
  call void @llvm.lifetime.end.p0(i64 8, ptr %6) #12
  call void @llvm.lifetime.end.p0(i64 144, ptr %5) #12
  br label %69

66:                                               ; preds = %11
  %67 = load ptr, ptr %2, align 8, !tbaa !3
  %68 = load ptr, ptr %3, align 8, !tbaa !38
  call void @hwloc_pci_forced_locality_parse(ptr noundef %67, ptr noundef %68)
  br label %69

69:                                               ; preds = %66, %63
  call void @llvm.lifetime.end.p0(i64 4, ptr %4) #12
  br label %70

70:                                               ; preds = %69, %1
  call void @llvm.lifetime.end.p0(i64 8, ptr %3) #12
  ret void
}