; Function Attrs: nounwind uwtable
define hidden void @hwloc_pci_discovery_prepare(ptr noundef captures(none) %0) local_unnamed_addr #1 {
  %2 = alloca %struct.stat, align 8
  %3 = tail call ptr @getenv(ptr noundef nonnull @.str) #22
  %.not = icmp eq ptr %3, null
  br i1 %.not, label %32, label %4

4:                                                ; preds = %1
  %5 = getelementptr inbounds nuw i8, ptr %0, i64 880
  store i32 1, ptr %5, align 8, !tbaa !31
  %6 = tail call i32 (ptr, i32, ...) @open(ptr noundef nonnull %3, i32 noundef 0) #22
  %7 = icmp sgt i32 %6, -1
  br i1 %7, label %8, label %31

8:                                                ; preds = %4
  call void @llvm.lifetime.start.p0(i64 144, ptr nonnull %2) #22
  %9 = call i32 @fstat(i32 noundef %6, ptr noundef nonnull %2) #22
  %.not20 = icmp eq i32 %9, 0
  br i1 %.not20, label %10, label %29

10:                                               ; preds = %8
  %11 = getelementptr inbounds nuw i8, ptr %2, i64 48
  %12 = load i64, ptr %11, align 8, !tbaa !32
  %13 = icmp slt i64 %12, 65537
  br i1 %13, label %14, label %23

14:                                               ; preds = %10
  %15 = add nsw i64 %12, 1
  %16 = tail call noalias ptr @malloc(i64 noundef %15) #23
  %.not21 = icmp eq ptr %16, null
  br i1 %.not21, label %22, label %17

17:                                               ; preds = %14
  %18 = tail call i64 @read(i32 noundef %6, ptr noundef nonnull %16, i64 noundef %12) #22
  %19 = icmp eq i64 %18, %12
  br i1 %19, label %20, label %22

20:                                               ; preds = %17
  %21 = getelementptr inbounds i8, ptr %16, i64 %12
  store i8 0, ptr %21, align 1, !tbaa !35
  tail call fastcc void @hwloc_pci_forced_locality_parse(ptr noundef nonnull %0, ptr noundef %16)
  br label %22

22:                                               ; preds = %20, %17, %14
  tail call void @free(ptr noundef %16) #22
  br label %29

23:                                               ; preds = %10
  %24 = tail call i32 @hwloc_hide_errors() #22
  %25 = icmp slt i32 %24, 2
  br i1 %25, label %26, label %29

26:                                               ; preds = %23
  %27 = load ptr, ptr @stderr, align 8, !tbaa !36
  %28 = tail call i32 (ptr, ptr, ...) @fprintf(ptr noundef %27, ptr noundef nonnull @.str.1, ptr noundef nonnull %3, i64 noundef %12) #24
  br label %29

29:                                               ; preds = %22, %26, %23, %8
  %30 = tail call i32 @close(i32 noundef %6) #22
  call void @llvm.lifetime.end.p0(i64 144, ptr nonnull %2) #22
  br label %32

31:                                               ; preds = %4
  tail call fastcc void @hwloc_pci_forced_locality_parse(ptr noundef nonnull %0, ptr noundef %3)
  br label %32

32:                                               ; preds = %29, %31, %1
  ret void
}